target datalayout = "e-m:e-p270:32:32-p271:32:32-p272:64:64-i64:64-i128:128-f80:128-n8:16:32:64-S128"
target triple = "x86_64-pc-linux-gnu"

%struct.hmac_data_st = type { ptr, ptr, %struct.PROV_DIGEST, ptr, i64, i64, [13 x i8], i32, [64 x i8], i64 }
%struct.PROV_DIGEST = type { ptr, ptr, ptr }

; Function Attrs: nounwind uwtable
define internal i32 @hmac_update(ptr noundef %0, ptr noundef %1, i64 noundef %2) #0 {
  %4 = alloca i32, align 4
  %5 = alloca ptr, align 8
  %6 = alloca ptr, align 8
  %7 = alloca i64, align 8
  %8 = alloca ptr, align 8
  %9 = alloca i32, align 4
  store ptr %0, ptr %5, align 8, !tbaa !3
  store ptr %1, ptr %6, align 8, !tbaa !23
  store i64 %2, ptr %7, align 8, !tbaa !24
  call void @llvm.lifetime.start.p0(i64 8, ptr %8) #6
  %10 = load ptr, ptr %5, align 8, !tbaa !3
  store ptr %10, ptr %8, align 8, !tbaa !7
  %11 = load ptr, ptr %8, align 8, !tbaa !7
  %12 = getelementptr inbounds nuw %struct.hmac_data_st, ptr %11, i32 0, i32 5
  %13 = load i64, ptr %12, align 8, !tbaa !31
  %14 = icmp ugt i64 %13, 0
  br i1 %14, label %15, label %63

15:                                               ; preds = %3
  %16 = load ptr, ptr %8, align 8, !tbaa !7
  %17 = getelementptr inbounds nuw %struct.hmac_data_st, ptr %16, i32 0, i32 7
  %18 = load i32, ptr %17, align 8, !tbaa !32
  %19 = icmp ne i32 %18, 0
  br i1 %19, label %32, label %20

20:                                               ; preds = %15
  %21 = load i64, ptr %7, align 8, !tbaa !24
  %22 = icmp ne i64 %21, 13
  br i1 %22, label %23, label %24

23:                                               ; preds = %20
  store i32 0, ptr %4, align 4
  store i32 1, ptr %9, align 4
  br label %70

24:                                               ; preds = %20
  %25 = load ptr, ptr %8, align 8, !tbaa !7
  %26 = getelementptr inbounds nuw %struct.hmac_data_st, ptr %25, i32 0, i32 6
  %27 = getelementptr inbounds [13 x i8], ptr %26, i64 0, i64 0
  %28 = load ptr, ptr %6, align 8, !tbaa !23
  %29 = load i64, ptr %7, align 8, !tbaa !24
  call void @llvm.memcpy.p0.p0.i64(ptr align 8 %27, ptr align 1 %28, i64 %29, i1 false)
  %30 = load ptr, ptr %8, align 8, !tbaa !7
  %31 = getelementptr inbounds nuw %struct.hmac_data_st, ptr %30, i32 0, i32 7
  store i32 1, ptr %31, align 8, !tbaa !32
  store i32 1, ptr %4, align 4
  store i32 1, ptr %9, align 4
  br label %70

32:                                               ; preds = %15
  %33 = load ptr, ptr %8, align 8, !tbaa !7
  %34 = getelementptr inbounds nuw %struct.hmac_data_st, ptr %33, i32 0, i32 5
  %35 = load i64, ptr %34, align 8, !tbaa !31
  %36 = load i64, ptr %7, align 8, !tbaa !24
  %37 = icmp ult i64 %35, %36
  br i1 %37, label %38, label %39

38:                                               ; preds = %32
  store i32 0, ptr %4, align 4
  store i32 1, ptr %9, align 4
  br label %70

39:                                               ; preds = %32
  %40 = load ptr, ptr %8, align 8, !tbaa !7
  %41 = getelementptr inbounds nuw %struct.hmac_data_st, ptr %40, i32 0, i32 2
  %42 = call ptr @ossl_prov_digest_md(ptr noundef %41)
  %43 = load ptr, ptr %8, align 8, !tbaa !7
  %44 = getelementptr inbounds nuw %struct.hmac_data_st, ptr %43, i32 0, i32 8
  %45 = getelementptr inbounds [64 x i8], ptr %44, i64 0, i64 0
  %46 = load ptr, ptr %8, align 8, !tbaa !7
  %47 = getelementptr inbounds nuw %struct.hmac_data_st, ptr %46, i32 0, i32 9
  %48 = load ptr, ptr %8, align 8, !tbaa !7
  %49 = getelementptr inbounds nuw %struct.hmac_data_st, ptr %48, i32 0, i32 6
  %50 = getelementptr inbounds [13 x i8], ptr %49, i64 0, i64 0
  %51 = load ptr, ptr %6, align 8, !tbaa !23
  %52 = load i64, ptr %7, align 8, !tbaa !24
  %53 = load ptr, ptr %8, align 8, !tbaa !7
  %54 = getelementptr inbounds nuw %struct.hmac_data_st, ptr %53, i32 0, i32 5
  %55 = load i64, ptr %54, align 8, !tbaa !31
  %56 = load ptr, ptr %8, align 8, !tbaa !7
  %57 = getelementptr inbounds nuw %struct.hmac_data_st, ptr %56, i32 0, i32 3
  %58 = load ptr, ptr %57, align 8, !tbaa !27
  %59 = load ptr, ptr %8, align 8, !tbaa !7
  %60 = getelementptr inbounds nuw %struct.hmac_data_st, ptr %59, i32 0, i32 4
  %61 = load i64, ptr %60, align 8, !tbaa !28
  %62 = call i32 @ssl3_cbc_digest_record(ptr noundef %42, ptr noundef %45, ptr noundef %47, ptr noundef %50, ptr noundef %51, i64 noundef %52, i64 noundef %55, ptr noundef %58, i64 noundef %61, i8 noundef signext 0)
  store i32 %62, ptr %4, align 4
  store i32 1, ptr %9, align 4
  br label %70

63:                                               ; preds = %3
  %64 = load ptr, ptr %8, align 8, !tbaa !7
  %65 = getelementptr inbounds nuw %struct.hmac_data_st, ptr %64, i32 0, i32 1
  %66 = load ptr, ptr %65, align 8, !tbaa !9
  %67 = load ptr, ptr %6, align 8, !tbaa !23
  %68 = load i64, ptr %7, align 8, !tbaa !24
  %69 = call i32 @HMAC_Update(ptr noundef %66, ptr noundef %67, i64 noundef %68)
  store i32 %69, ptr %4, align 4
  store i32 1, ptr %9, align 4
  br label %70

70:                                               ; preds = %63, %39, %38, %24, %23
  call void @llvm.lifetime.end.p0(i64 8, ptr %8) #6
  %71 = load i32, ptr %4, align 4
  ret i32 %71
}