; Function Attrs: nounwind uwtable
define internal i32 @hmac_update(ptr noundef %0, ptr noundef %1, i64 noundef %2) #0 {
  %4 = getelementptr inbounds nuw i8, ptr %0, i64 56
  %5 = load i64, ptr %4, align 8, !tbaa !27
  %.not = icmp eq i64 %5, 0
  br i1 %.not, label %26, label %6

6:                                                ; preds = %3
  %7 = getelementptr inbounds nuw i8, ptr %0, i64 80
  %8 = load i32, ptr %7, align 8, !tbaa !28
  %.not24 = icmp eq i32 %8, 0
  br i1 %.not24, label %9, label %12

9:                                                ; preds = %6
  %.not25 = icmp eq i64 %2, 13
  br i1 %.not25, label %10, label %30

10:                                               ; preds = %9
  %11 = getelementptr inbounds nuw i8, ptr %0, i64 64
  tail call void @llvm.memcpy.p0.p0.i64(ptr noundef nonnull align 8 dereferenceable(13) %11, ptr noundef nonnull align 1 dereferenceable(13) %1, i64 13, i1 false)
  store i32 1, ptr %7, align 8, !tbaa !28
  br label %30

12:                                               ; preds = %6
  %13 = icmp ult i64 %5, %2
  br i1 %13, label %30, label %14

14:                                               ; preds = %12
  %15 = getelementptr inbounds nuw i8, ptr %0, i64 16
  %16 = tail call ptr @ossl_prov_digest_md(ptr noundef nonnull %15) #7
  %17 = getelementptr inbounds nuw i8, ptr %0, i64 84
  %18 = getelementptr inbounds nuw i8, ptr %0, i64 152
  %19 = getelementptr inbounds nuw i8, ptr %0, i64 64
  %20 = load i64, ptr %4, align 8, !tbaa !27
  %21 = getelementptr inbounds nuw i8, ptr %0, i64 40
  %22 = load ptr, ptr %21, align 8, !tbaa !25
  %23 = getelementptr inbounds nuw i8, ptr %0, i64 48
  %24 = load i64, ptr %23, align 8, !tbaa !26
  %25 = tail call i32 @ssl3_cbc_digest_record(ptr noundef %16, ptr noundef nonnull %17, ptr noundef nonnull %18, ptr noundef nonnull %19, ptr noundef %1, i64 noundef %2, i64 noundef %20, ptr noundef %22, i64 noundef %24, i8 noundef signext 0) #7
  br label %30

26:                                               ; preds = %3
  %27 = getelementptr inbounds nuw i8, ptr %0, i64 8
  %28 = load ptr, ptr %27, align 8, !tbaa !3
  %29 = tail call i32 @HMAC_Update(ptr noundef %28, ptr noundef %1, i64 noundef %2) #7
  br label %30

30:                                               ; preds = %12, %9, %26, %14, %10
  %.0 = phi i32 [ %25, %14 ], [ 1, %10 ], [ %29, %26 ], [ 0, %9 ], [ 0, %12 ]
  ret i32 %.0
}